target datalayout = "e-m:e-p270:32:32-p271:32:32-p272:64:64-i64:64-i128:128-f80:128-n8:16:32:64-S128"
target triple = "x86_64-pc-linux-gnu"

%"class.llvm::RegisterBank" = type { i32, i32, ptr, ptr }
%"class.llvm::TypeSize" = type { %"class.llvm::details::FixedOrScalableQuantity.base", [7 x i8] }
%"class.llvm::details::FixedOrScalableQuantity.base" = type <{ i64, i8 }>

@_ZN4llvm7AArch64L10FPRRegBankE = internal constant %"class.llvm::RegisterBank" { i32 1, i32 305, ptr @.str.2, ptr @_ZN4llvm7AArch64L22FPRRegBankCoverageDataE }, align 8
@_ZN4llvm7AArch64L10GPRRegBankE = internal constant %"class.llvm::RegisterBank" { i32 2, i32 305, ptr @.str.3, ptr @_ZN4llvm7AArch64L22GPRRegBankCoverageDataE }, align 8

; Function Attrs: mustprogress nounwind uwtable
define linkonce_odr hidden noundef i32 @_ZNK4llvm16RegisterBankInfo8copyCostERKNS_12RegisterBankES3_NS_8TypeSizeE(ptr noundef nonnull align 8 dereferenceable(160) %0, ptr noundef nonnull align 8 dereferenceable(24) %1, ptr noundef nonnull align 8 dereferenceable(24) %2, i64 %3, i8 %4) unnamed_addr #0 comdat align 2 {
  %6 = alloca %"class.llvm::TypeSize", align 8
  %7 = alloca ptr, align 8
  %8 = alloca ptr, align 8
  %9 = alloca ptr, align 8
  %10 = getelementptr inbounds nuw { i64, i8 }, ptr %6, i32 0, i32 0
  store i64 %3, ptr %10, align 8
  %11 = getelementptr inbounds nuw { i64, i8 }, ptr %6, i32 0, i32 1
  store i8 %4, ptr %11, align 8
  store ptr %0, ptr %7, align 8
  store ptr %1, ptr %8, align 8
  store ptr %2, ptr %9, align 8
  %12 = load ptr, ptr %8, align 8
  %13 = load ptr, ptr %9, align 8
  %14 = icmp ne ptr %12, %13
  %15 = zext i1 %14 to i32
  ret i32 %15
}

; Function Attrs: mustprogress nounwind uwtable
define dso_local noundef i32 @_ZNK4llvm23AArch64RegisterBankInfo8copyCostERKNS_12RegisterBankES3_NS_8TypeSizeE(ptr noundef nonnull align 8 dereferenceable(168) %0, ptr noundef nonnull align 8 dereferenceable(24) %1, ptr noundef nonnull align 8 dereferenceable(24) %2, i64 %3, i8 %4) unnamed_addr #0 align 2 {
  %6 = alloca i32, align 4
  %7 = alloca %"class.llvm::TypeSize", align 8
  %8 = alloca ptr, align 8
  %9 = alloca ptr, align 8
  %10 = alloca ptr, align 8
  %11 = alloca %"class.llvm::TypeSize", align 8
  %12 = getelementptr inbounds nuw { i64, i8 }, ptr %7, i32 0, i32 0
  store i64 %3, ptr %12, align 8
  %13 = getelementptr inbounds nuw { i64, i8 }, ptr %7, i32 0, i32 1
  store i8 %4, ptr %13, align 8
  store ptr %0, ptr %8, align 8
  store ptr %1, ptr %9, align 8
  store ptr %2, ptr %10, align 8
  %14 = load ptr, ptr %8, align 8
  %15 = load ptr, ptr %9, align 8
  %16 = icmp eq ptr %15, @_ZN4llvm7AArch64L10GPRRegBankE
  br i1 %16, label %17, label %21

17:                                               ; preds = %5
  %18 = load ptr, ptr %10, align 8
  %19 = icmp eq ptr %18, @_ZN4llvm7AArch64L10FPRRegBankE
  br i1 %19, label %20, label %21

20:                                               ; preds = %17
  store i32 5, ptr %6, align 4
  br label %36

21:                                               ; preds = %17, %5
  %22 = load ptr, ptr %9, align 8
  %23 = icmp eq ptr %22, @_ZN4llvm7AArch64L10FPRRegBankE
  br i1 %23, label %24, label %28

24:                                               ; preds = %21
  %25 = load ptr, ptr %10, align 8
  %26 = icmp eq ptr %25, @_ZN4llvm7AArch64L10GPRRegBankE
  br i1 %26, label %27, label %28

27:                                               ; preds = %24
  store i32 4, ptr %6, align 4
  br label %36

28:                                               ; preds = %24, %21
  %29 = load ptr, ptr %9, align 8
  %30 = load ptr, ptr %10, align 8
  call void @llvm.memcpy.p0.p0.i64(ptr align 8 %11, ptr align 8 %7, i64 16, i1 false)
  %31 = getelementptr inbounds nuw { i64, i8 }, ptr %11, i32 0, i32 0
  %32 = load i64, ptr %31, align 8
  %33 = getelementptr inbounds nuw { i64, i8 }, ptr %11, i32 0, i32 1
  %34 = load i8, ptr %33, align 8
  %35 = call noundef i32 @_ZNK4llvm16RegisterBankInfo8copyCostERKNS_12RegisterBankES3_NS_8TypeSizeE(ptr noundef nonnull align 8 dereferenceable(160) %14, ptr noundef nonnull align 8 dereferenceable(24) %29, ptr noundef nonnull align 8 dereferenceable(24) %30, i64 %32, i8 %34)
  store i32 %35, ptr %6, align 4
  br label %36

36:                                               ; preds = %28, %27, %20
  %37 = load i32, ptr %6, align 4
  ret i32 %37
}