; Function Attrs: mustprogress nofree norecurse nosync nounwind willreturn memory(none) uwtable
define dso_local noundef range(i32 0, 6) i32 @_ZNK4llvm23AArch64RegisterBankInfo8copyCostERKNS_12RegisterBankES3_NS_8TypeSizeE(ptr nocapture nonnull readnone align 8 %0, ptr noundef nonnull readnone align 8 dereferenceable(24) %1, ptr noundef nonnull readnone align 8 dereferenceable(24) %2, i64 %3, i8 %4) unnamed_addr #3 align 2 {
  %6 = icmp eq ptr %1, @_ZN4llvm7AArch64L10GPRRegBankE
  %7 = icmp eq ptr %2, @_ZN4llvm7AArch64L10FPRRegBankE
  %or.cond = and i1 %6, %7
  br i1 %or.cond, label %14, label %8

8:                                                ; preds = %5
  %9 = icmp eq ptr %1, @_ZN4llvm7AArch64L10FPRRegBankE
  %10 = icmp eq ptr %2, @_ZN4llvm7AArch64L10GPRRegBankE
  %or.cond3 = and i1 %9, %10
  br i1 %or.cond3, label %14, label %11

11:                                               ; preds = %8
  %12 = icmp ne ptr %1, %2
  %13 = zext i1 %12 to i32
  br label %14

14:                                               ; preds = %8, %5, %11
  %.0 = phi i32 [ %13, %11 ], [ 5, %5 ], [ 4, %8 ]
  ret i32 %.0
}